Certificate:
    Data:
        Version: 3 (0x2)
        Serial Number: 4097 (0x1001)
        Signature Algorithm: md5WithRSAEncryption
        Issuer: C=US, ST=Washington, L=Issaquah, O=MSD, CN=server
        Validity
            Not Before: Mar 12 02:57:59 2024 GMT
            Not After : Mar 12 02:57:59 2025 GMT
        Subject: C=US, ST=Washington, O=MSD, CN=clientP
        Subject Public Key Info:
            Public Key Algorithm: rsaEncryption
                Public-Key: (4096 bit)
                Modulus:
                    00:b5:79:90:2f:99:71:04:a0:a6:0b:c1:6d:aa:a6:
                    31:06:80:3d:8e:d7:fd:4a:13:6d:af:05:36:62:ad:
                    4f:6b:f1:8b:a6:fe:d1:3f:3a:50:fa:6d:d5:4d:50:
                    ee:cf:95:7f:b7:cb:d9:96:c6:2d:9c:60:90:26:e1:
                    df:22:0e:67:09:37:58:e0:b3:b0:f2:03:9f:54:1c:
                    6d:33:51:1c:fa:26:0b:23:49:a3:f8:5e:2c:77:57:
                    ee:a0:26:42:45:3a:75:29:b5:00:0a:6c:c6:80:d0:
                    5b:4a:1f:db:5e:b6:b0:da:52:d3:ab:b4:07:99:48:
                    de:8a:fa:88:e1:cb:39:1d:17:8a:ce:c0:c2:34:d3:
                    37:ae:70:14:c3:fa:2c:10:4a:06:54:4f:98:ae:56:
                    c5:41:2d:ab:e3:a3:99:a0:7e:0d:ad:df:71:45:9d:
                    6d:15:78:9e:da:ed:b5:bf:08:4f:cb:fc:1f:6c:f7:
                    a0:cc:88:f4:b3:fa:0b:42:95:1b:44:62:2f:9e:ee:
                    92:86:35:92:0d:c7:a0:39:61:ec:6f:3d:aa:c6:e5:
                    0e:82:07:18:2e:16:2b:da:fc:5d:9e:5e:56:cc:c1:
                    ab:2d:cb:96:94:f4:b3:9f:a0:3f:59:0c:01:ef:53:
                    80:c7:a7:c3:58:a5:b0:1a:e4:8a:27:13:64:93:66:
                    a1:b9:2a:e7:04:bf:b9:56:55:b9:11:7e:37:7e:4b:
                    46:50:5d:ac:d0:db:af:c6:81:bc:20:d8:8a:8c:ae:
                    6b:78:73:39:2f:65:85:de:44:e7:1b:60:75:87:41:
                    94:42:84:69:b5:ba:fb:35:20:61:ba:f8:a8:d3:69:
                    5f:c6:f9:d9:5c:80:41:fc:6b:1c:26:18:36:c5:11:
                    66:00:f8:c4:ac:5d:ac:60:6c:e1:b4:e6:51:8b:a3:
                    22:58:1b:df:35:9e:b7:d4:4f:4a:ca:73:fe:81:37:
                    3b:22:ae:5f:5c:7b:b5:10:42:44:09:4b:5f:d4:16:
                    61:53:50:25:0e:e0:bd:36:80:1b:a4:35:9d:23:3b:
                    9e:9b:ba:cc:a9:63:1b:3d:0a:80:90:a5:39:18:11:
                    41:31:31:28:a2:62:a6:ad:a6:87:34:bd:40:e5:4c:
                    56:0d:31:c9:40:11:56:a5:50:e2:3b:71:8d:ea:2e:
                    b5:dc:57:2e:75:9f:32:c8:75:a9:d0:21:98:22:f0:
                    3d:fe:46:a5:f7:32:51:7e:7a:69:57:84:9e:85:7a:
                    7f:4e:a3:06:36:63:c5:bf:38:22:9d:72:f1:3b:f8:
                    db:49:c9:57:9b:57:10:41:62:09:f7:57:83:e0:6a:
                    aa:23:1a:4a:e6:40:f1:e0:dd:58:40:0f:5f:65:a2:
                    1e:61:ff
                Exponent: 65537 (0x10001)
        X509v3 extensions:
            X509v3 Basic Constraints: 
                CA:FALSE
            Netscape Comment: 
                OpenSSL Generated Certificate
            X509v3 Subject Key Identifier: 
                54:D1:0D:90:88:19:58:7F:80:09:92:9F:01:84:FE:D9:EA:BE:CB:93
            X509v3 Authority Key Identifier: 
                keyid:AB:C2:2A:AE:6A:88:0A:84:18:F3:DE:03:EE:4A:FE:8B:42:D7:D3:3D
                DirName:/C=US/ST=Washington/L=Issaquah/O=MSD/CN=server
                serial:43:7D:22:A3:F1:7E:85:FE:65:0B:12:B4:03:18:AD:6B:08:B8:E1:E9
    Signature Algorithm: md5WithRSAEncryption
    Signature Value:
        46:ad:e4:80:ab:1f:5a:75:81:59:e4:e6:b7:26:70:cc:4b:09:
        da:31:41:54:24:77:77:2f:26:ae:47:98:3c:48:1e:be:b4:31:
        a8:bb:70:57:66:49:50:4e:89:67:4f:b7:b0:4a:70:e5:c1:90:
        01:f5:2c:c0:80:98:db:80:2a:8d:c7:33:f5:79:54:e0:a0:5e:
        c0:f9:1f:ac:fa:81:e9:39:d8:00:9a:81:18:5b:36:1b:1c:dd:
        aa:3f:d8:76:52:ce:a3:34:c9:3f:51:e1:16:21:4b:10:ff:6b:
        7b:d6:a7:b1:e5:9c:8a:4d:43:97:ce:84:aa:44:26:d9:fd:58:
        c5:5f:28:3e:ec:ce:2b:62:c8:f9:6d:32:90:36:45:80:74:03:
        7d:f4:24:f1:3e:2b:f8:fa:9d:d1:ca:2e:f5:7b:35:62:ca:c5:
        c5:0e:7d:da:42:39:29:c0:24:32:b7:33:bd:1e:52:4b:01:2a:
        bb:54:d7:ce:62:ce:d0:32:42:ee:f7:f7:b8:d2:c7:21:5f:16:
        22:3c:b3:a4:a2:0a:2d:1d:1f:d3:df:ae:b4:90:01:5d:a8:72:
        08:5d:91:1b:3b:2c:85:7a:46:43:5a:4e:ba:da:13:29:57:f0:
        1f:5a:ba:92:f0:03:59:b3:0f:03:48:0a:17:76:b4:fe:7f:04:
        be:94:c9:d2:4a:71:2a:59:ca:b4:af:bc:37:5a:0c:74:1a:9d:
        11:e3:55:44:49:2b:d0:9e:dc:ac:17:0b:e0:35:05:14:21:97:
        9c:34:09:49:d2:61:96:0d:f3:e1:42:8a:62:e4:60:4c:05:e1:
        ec:00:bf:ab:f4:67:15:47:92:c2:53:06:95:42:8e:65:a2:a7:
        f9:7a:b2:47:ce:92:21:25:e1:73:19:bb:24:a4:9a:c4:cd:e1:
        a7:b0:52:71:b1:d7:66:a4:d6:d0:b2:34:59:35:dd:b6:9b:33:
        c0:8b:80:64:68:89:1e:b9:ce:4f:66:8e:f1:1b:45:3e:da:2e:
        22:05:f8:65:16:1f:d1:a2:fe:49:c4:b0:33:90:70:05:5f:48:
        05:d2:f6:24:95:c0:82:04:48:af:d7:c5:a0:16:a6:11:61:25:
        e5:86:31:a1:20:c7:26:e4:1c:7d:dc:49:a2:fd:c4:ad:cf:15:
        ca:02:c2:b7:f4:dd:15:a3:03:6b:76:37:de:d6:88:7f:4b:e2:
        55:5c:fb:63:5b:fe:18:db:a3:ac:3f:e1:5b:94:dc:e7:9b:83:
        64:75:09:8b:16:b8:42:7a:fb:01:93:30:b0:1b:29:68:3f:a9:
        4a:de:58:d5:5b:bf:ab:9d:a5:33:49:bd:ad:fe:40:23:2f:b8:
        5a:49:75:7e:44:c8:8b:19
-----BEGIN CERTIFICATE-----
MIIGAjCCA+qgAwIBAgICEAEwDQYJKoZIhvcNAQEEBQAwVDELMAkGA1UEBhMCVVMx
EzARBgNVBAgMCldhc2hpbmd0b24xETAPBgNVBAcMCElzc2FxdWFoMQwwCgYDVQQK
DANNU0QxDzANBgNVBAMMBnNlcnZlcjAeFw0yNDAzMTIwMjU3NTlaFw0yNTAzMTIw
MjU3NTlaMEIxCzAJBgNVBAYTAlVTMRMwEQYDVQQIDApXYXNoaW5ndG9uMQwwCgYD
VQQKDANNU0QxEDAOBgNVBAMMB2NsaWVudFAwggIiMA0GCSqGSIb3DQEBAQUAA4IC
DwAwggIKAoICAQC1eZAvmXEEoKYLwW2qpjEGgD2O1/1KE22vBTZirU9r8Yum/tE/
OlD6bdVNUO7PlX+3y9mWxi2cYJAm4d8iDmcJN1jgs7DyA59UHG0zURz6JgsjSaP4
Xix3V+6gJkJFOnUptQAKbMaA0FtKH9tetrDaUtOrtAeZSN6K+ojhyzkdF4rOwMI0
0zeucBTD+iwQSgZUT5iuVsVBLavjo5mgfg2t33FFnW0VeJ7a7bW/CE/L/B9s96DM
iPSz+gtClRtEYi+e7pKGNZINx6A5YexvParG5Q6CBxguFiva/F2eXlbMwasty5aU
9LOfoD9ZDAHvU4DHp8NYpbAa5IonE2STZqG5KucEv7lWVbkRfjd+S0ZQXazQ26/G
gbwg2IqMrmt4czkvZYXeROcbYHWHQZRChGm1uvs1IGG6+KjTaV/G+dlcgEH8axwm
GDbFEWYA+MSsXaxgbOG05lGLoyJYG981nrfUT0rKc/6BNzsirl9ce7UQQkQJS1/U
FmFTUCUO4L02gBukNZ0jO56busypYxs9CoCQpTkYEUExMSiiYqatpoc0vUDlTFYN
MclAEValUOI7cY3qLrXcVy51nzLIdanQIZgi8D3+RqX3MlF+emlXhJ6Fen9OowY2
Y8W/OCKdcvE7+NtJyVebVxBBYgn3V4PgaqojGkrmQPHg3VhAD19loh5h/wIDAQAB
o4HvMIHsMAkGA1UdEwQCMAAwLAYJYIZIAYb4QgENBB8WHU9wZW5TU0wgR2VuZXJh
dGVkIENlcnRpZmljYXRlMB0GA1UdDgQWBBRU0Q2QiBlYf4AJkp8BhP7Z6r7LkzCB
kQYDVR0jBIGJMIGGgBSrwiquaogKhBjz3gPuSv6LQtfTPaFYpFYwVDELMAkGA1UE
BhMCVVMxEzARBgNVBAgMCldhc2hpbmd0b24xETAPBgNVBAcMCElzc2FxdWFoMQww
CgYDVQQKDANNU0QxDzANBgNVBAMMBnNlcnZlcoIUQ30io/F+hf5lCxK0Axitawi4
4ekwDQYJKoZIhvcNAQEEBQADggIBAEat5ICrH1p1gVnk5rcmcMxLCdoxQVQkd3cv
Jq5HmDxIHr60Mai7cFdmSVBOiWdPt7BKcOXBkAH1LMCAmNuAKo3HM/V5VOCgXsD5
H6z6gek52ACagRhbNhsc3ao/2HZSzqM0yT9R4RYhSxD/a3vWp7HlnIpNQ5fOhKpE
Jtn9WMVfKD7szitiyPltMpA2RYB0A330JPE+K/j6ndHKLvV7NWLKxcUOfdpCOSnA
JDK3M70eUksBKrtU185iztAyQu7397jSxyFfFiI8s6SiCi0dH9PfrrSQAV2ocghd
kRs7LIV6RkNaTrraEylX8B9aupLwA1mzDwNIChd2tP5/BL6UydJKcSpZyrSvvDda
DHQanRHjVURJK9Ce3KwXC+A1BRQhl5w0CUnSYZYN8+FCimLkYEwF4ewAv6v0ZxVH
ksJTBpVCjmWip/l6skfOkiEl4XMZuySkmsTN4aewUnGx12ak1tCyNFk13babM8CL
gGRoiR65zk9mjvEbRT7aLiIF+GUWH9Gi/knEsDOQcAVfSAXS9iSVwIIESK/XxaAW
phFhJeWGMaEgxybkHH3cSaL9xK3PFcoCwrf03RWjA2t2N97WiH9L4lVc+2Nb/hjb
o6w/4VuU3Oebg2R1CYsWuEJ6+wGTMLAbKWg/qUreWNVbv6udpTNJva3+QCMvuFpJ
dX5EyIsZ
-----END CERTIFICATE-----
