Certificate:
    Data:
        Version: 3 (0x2)
        Serial Number: 4096 (0x1000)
        Signature Algorithm: md5WithRSAEncryption
        Issuer: C=US, ST=Washington, L=Issaquah, O=MSD, CN=server
        Validity
            Not Before: Mar 12 02:55:53 2024 GMT
            Not After : Mar 12 02:55:53 2025 GMT
        Subject: C=US, ST=Washington, O=MSD, CN=serverP
        Subject Public Key Info:
            Public Key Algorithm: rsaEncryption
                Public-Key: (4096 bit)
                Modulus:
                    00:ea:8f:ab:29:bb:97:86:98:31:30:05:bb:47:cd:
                    b1:fd:48:c8:18:19:f0:8f:0b:f2:7b:71:44:d6:7a:
                    d5:c1:6b:af:7f:53:05:0a:39:c4:34:49:d7:03:1d:
                    5e:a5:cf:b4:c2:ca:f6:db:40:e9:86:08:a6:1a:67:
                    6a:ca:b5:43:8d:0f:9a:d2:18:02:5e:99:5f:08:7a:
                    d1:ff:e8:ed:64:de:94:82:5e:69:10:1e:78:b4:07:
                    ba:cf:f2:2b:d8:36:28:50:34:57:0c:f7:f5:a2:5e:
                    8e:c0:97:de:b9:84:08:99:57:a9:33:64:ab:ef:ae:
                    e8:8a:b8:85:de:c5:cb:bb:16:4c:e7:f0:8b:61:f0:
                    72:1e:67:b2:47:72:e9:97:38:24:84:43:76:95:b9:
                    ed:9f:bc:cd:39:72:64:a2:e7:c3:88:d6:e5:d9:1d:
                    5a:2c:74:40:91:26:82:72:38:5b:a4:ac:74:0a:4a:
                    90:c3:4f:37:02:b0:e2:85:b2:eb:ba:c1:a5:c1:1b:
                    af:d7:9e:90:6c:64:fb:d1:de:38:c9:4a:34:81:4e:
                    da:9a:fb:d9:8a:cd:9c:9b:48:85:cf:5e:83:bf:52:
                    23:2d:b0:df:7c:45:70:4e:6a:87:48:fb:62:4d:e0:
                    03:66:81:2b:e1:52:21:92:83:2c:1b:31:00:a8:7f:
                    88:3c:fb:b2:41:51:c5:73:63:69:5d:08:88:fd:ff:
                    4c:7a:b8:d8:51:d9:c3:44:8f:df:62:e9:77:50:59:
                    b4:49:c1:96:ba:b3:55:52:c9:03:bc:0f:c4:e1:a8:
                    58:00:2b:95:da:b4:18:77:66:dd:08:0c:1a:bc:15:
                    91:54:d9:2c:36:a2:b6:02:74:20:f7:e4:56:eb:40:
                    46:98:d3:b0:04:1a:a2:86:14:ae:9e:02:0d:28:db:
                    63:93:a2:7c:49:ef:23:be:19:5b:b5:5a:17:17:7f:
                    a1:86:f4:4d:8e:99:ac:01:6c:23:be:68:9d:33:1d:
                    d6:8b:7a:ef:97:c1:ad:52:08:89:0a:a8:a2:e6:8d:
                    2c:dc:80:f4:7b:96:2c:91:bd:97:a0:20:17:3a:97:
                    97:f9:a1:38:bd:70:fd:a4:7b:50:a5:3f:1a:fc:25:
                    7f:8b:4a:5b:6c:c1:1a:5d:3f:0f:f3:ca:3c:81:ec:
                    98:d7:96:6e:f9:b2:50:42:8a:b9:45:b2:ba:d1:74:
                    ff:80:55:af:d4:6c:b6:f9:91:04:9f:66:29:6f:28:
                    36:18:8f:df:76:03:2d:f3:20:71:b2:94:cb:07:a2:
                    16:f6:2b:1a:8e:ee:93:18:c6:20:55:fa:36:f6:84:
                    da:3a:86:a0:33:89:74:cd:2f:1c:81:51:24:cc:8a:
                    fe:24:b3
                Exponent: 65537 (0x10001)
        X509v3 extensions:
            X509v3 Basic Constraints: 
                CA:FALSE
            Netscape Comment: 
                OpenSSL Generated Certificate
            X509v3 Subject Key Identifier: 
                26:A6:64:A4:C6:0A:43:9D:04:72:3B:1D:E2:69:C0:6E:FC:95:C9:43
            X509v3 Authority Key Identifier: 
                keyid:AB:C2:2A:AE:6A:88:0A:84:18:F3:DE:03:EE:4A:FE:8B:42:D7:D3:3D
                DirName:/C=US/ST=Washington/L=Issaquah/O=MSD/CN=server
                serial:43:7D:22:A3:F1:7E:85:FE:65:0B:12:B4:03:18:AD:6B:08:B8:E1:E9
    Signature Algorithm: md5WithRSAEncryption
    Signature Value:
        53:77:28:ac:5a:dd:4a:f7:41:cc:19:f0:f8:f7:6b:6b:62:11:
        cd:45:48:9d:d7:e3:73:b7:95:0a:0d:03:53:4c:54:45:7f:4f:
        26:b4:b6:4f:9a:2f:57:6f:99:49:5b:f0:e9:2a:16:eb:e6:f9:
        14:38:10:a8:7c:c9:b3:77:16:32:ab:0e:85:fc:8d:ed:e1:b7:
        ff:9d:1d:1c:66:0b:1b:8e:8c:f6:85:ad:5f:8b:db:96:b0:b2:
        e4:26:4e:29:f0:9d:7c:85:a6:a9:bb:75:83:98:8c:31:51:db:
        0a:c3:3b:d7:21:ad:4e:d6:bb:28:e6:2a:7b:b7:73:bf:7e:d4:
        7a:e3:1f:9a:64:57:5f:3c:24:93:00:c2:c9:50:85:97:a0:87:
        78:34:7f:78:ed:ee:08:a3:3f:e8:54:cf:8e:d5:aa:83:44:a4:
        a5:59:75:05:1a:24:c5:4c:6c:20:92:80:93:b8:43:d0:5f:49:
        18:82:09:ec:c8:df:fe:98:56:ad:8f:13:aa:71:f2:cb:29:07:
        8d:72:96:9a:24:20:e3:79:af:e5:95:fd:7f:45:75:fa:0e:cc:
        26:1a:f9:c0:2e:f2:6a:fb:be:a1:fa:98:b2:16:84:98:5d:e6:
        c5:e8:7a:8b:ae:16:45:6d:fe:6d:67:df:ed:86:a2:01:e2:bf:
        13:9b:43:88:82:40:76:f2:f2:8e:71:0d:65:9f:c3:ee:75:1c:
        f8:53:cf:a9:7e:8c:d8:94:03:6d:25:0b:ce:54:99:5b:fe:42:
        81:56:78:e1:41:b9:74:ef:f0:fa:f7:5b:5f:9c:7a:e6:b1:b2:
        2a:f4:83:0a:96:10:4a:1e:50:b2:58:e9:b4:29:04:3a:06:48:
        2c:69:ea:ef:5f:f2:a5:d2:f7:0d:df:fc:61:a1:8a:5c:54:fe:
        b0:89:31:ae:ee:4f:98:55:4b:10:10:82:90:b2:91:d9:b9:90:
        0d:c4:f0:4a:81:ff:29:41:ca:5f:89:e9:c2:37:a9:bf:d1:8a:
        19:46:99:c6:e6:e8:a7:01:01:81:fd:35:32:af:33:a8:e9:e6:
        ac:c4:8a:c0:ac:0f:06:f4:0b:23:4e:4f:c2:ee:4f:2d:03:09:
        5d:6a:c7:d1:12:e3:28:3c:8f:99:4b:72:c2:78:ff:71:23:bc:
        cf:41:6c:04:2f:40:95:e1:90:ca:bd:f8:fa:d7:4f:65:ad:da:
        01:36:24:81:9a:01:24:f1:47:ef:2e:f0:3c:d8:2c:8b:dc:f7:
        8b:8f:2f:45:68:a3:c6:ef:31:94:a5:f8:94:ed:33:7a:e5:66:
        32:88:50:37:54:b6:62:00:c4:fc:7d:25:93:d2:cb:2e:c3:a8:
        3d:21:77:37:a5:38:41:9e
-----BEGIN CERTIFICATE-----
MIIGAjCCA+qgAwIBAgICEAAwDQYJKoZIhvcNAQEEBQAwVDELMAkGA1UEBhMCVVMx
EzARBgNVBAgMCldhc2hpbmd0b24xETAPBgNVBAcMCElzc2FxdWFoMQwwCgYDVQQK
DANNU0QxDzANBgNVBAMMBnNlcnZlcjAeFw0yNDAzMTIwMjU1NTNaFw0yNTAzMTIw
MjU1NTNaMEIxCzAJBgNVBAYTAlVTMRMwEQYDVQQIDApXYXNoaW5ndG9uMQwwCgYD
VQQKDANNU0QxEDAOBgNVBAMMB3NlcnZlclAwggIiMA0GCSqGSIb3DQEBAQUAA4IC
DwAwggIKAoICAQDqj6spu5eGmDEwBbtHzbH9SMgYGfCPC/J7cUTWetXBa69/UwUK
OcQ0SdcDHV6lz7TCyvbbQOmGCKYaZ2rKtUOND5rSGAJemV8IetH/6O1k3pSCXmkQ
Hni0B7rP8ivYNihQNFcM9/WiXo7Al965hAiZV6kzZKvvruiKuIXexcu7Fkzn8Ith
8HIeZ7JHcumXOCSEQ3aVue2fvM05cmSi58OI1uXZHVosdECRJoJyOFukrHQKSpDD
TzcCsOKFsuu6waXBG6/XnpBsZPvR3jjJSjSBTtqa+9mKzZybSIXPXoO/UiMtsN98
RXBOaodI+2JN4ANmgSvhUiGSgywbMQCof4g8+7JBUcVzY2ldCIj9/0x6uNhR2cNE
j99i6XdQWbRJwZa6s1VSyQO8D8ThqFgAK5XatBh3Zt0IDBq8FZFU2Sw2orYCdCD3
5FbrQEaY07AEGqKGFK6eAg0o22OTonxJ7yO+GVu1WhcXf6GG9E2OmawBbCO+aJ0z
HdaLeu+Xwa1SCIkKqKLmjSzcgPR7liyRvZegIBc6l5f5oTi9cP2ke1ClPxr8JX+L
SltswRpdPw/zyjyB7JjXlm75slBCirlFsrrRdP+AVa/UbLb5kQSfZilvKDYYj992
Ay3zIHGylMsHohb2KxqO7pMYxiBV+jb2hNo6hqAziXTNLxyBUSTMiv4kswIDAQAB
o4HvMIHsMAkGA1UdEwQCMAAwLAYJYIZIAYb4QgENBB8WHU9wZW5TU0wgR2VuZXJh
dGVkIENlcnRpZmljYXRlMB0GA1UdDgQWBBQmpmSkxgpDnQRyOx3iacBu/JXJQzCB
kQYDVR0jBIGJMIGGgBSrwiquaogKhBjz3gPuSv6LQtfTPaFYpFYwVDELMAkGA1UE
BhMCVVMxEzARBgNVBAgMCldhc2hpbmd0b24xETAPBgNVBAcMCElzc2FxdWFoMQww
CgYDVQQKDANNU0QxDzANBgNVBAMMBnNlcnZlcoIUQ30io/F+hf5lCxK0Axitawi4
4ekwDQYJKoZIhvcNAQEEBQADggIBAFN3KKxa3Ur3QcwZ8Pj3a2tiEc1FSJ3X43O3
lQoNA1NMVEV/Tya0tk+aL1dvmUlb8OkqFuvm+RQ4EKh8ybN3FjKrDoX8je3ht/+d
HRxmCxuOjPaFrV+L25awsuQmTinwnXyFpqm7dYOYjDFR2wrDO9chrU7WuyjmKnu3
c79+1HrjH5pkV188JJMAwslQhZegh3g0f3jt7gijP+hUz47VqoNEpKVZdQUaJMVM
bCCSgJO4Q9BfSRiCCezI3/6YVq2PE6px8sspB41ylpokION5r+WV/X9FdfoOzCYa
+cAu8mr7vqH6mLIWhJhd5sXoeouuFkVt/m1n3+2GogHivxObQ4iCQHby8o5xDWWf
w+51HPhTz6l+jNiUA20lC85UmVv+QoFWeOFBuXTv8Pr3W1+ceuaxsir0gwqWEEoe
ULJY6bQpBDoGSCxp6u9f8qXS9w3f/GGhilxU/rCJMa7uT5hVSxAQgpCykdm5kA3E
8EqB/ylByl+J6cI3qb/RihlGmcbm6KcBAYH9NTKvM6jp5qzEisCsDwb0CyNOT8Lu
Ty0DCV1qx9ES4yg8j5lLcsJ4/3EjvM9BbAQvQJXhkMq9+PrXT2Wt2gE2JIGaASTx
R+8u8DzYLIvc94uPL0Voo8bvMZSl+JTtM3rlZjKIUDdUtmIAxPx9JZPSyy7DqD0h
dzelOEGe
-----END CERTIFICATE-----
